EXPORTS
    ?GetWave@CMICallbacks@@UEAAPEBVCWaveInfo@@H@Z
    ?GetWaveLevel@CMICallbacks@@UEAAPEBVCWaveLevel@@HH@Z
    ?MessageBox@CMICallbacks@@UEAAXPEBD@Z
    ?Lock@CMICallbacks@@UEAAXXZ
    ?Unlock@CMICallbacks@@UEAAXXZ
    ?GetWritePos@CMICallbacks@@UEAAHXZ
    ?GetPlayPos@CMICallbacks@@UEAAHXZ
    ?GetAuxBuffer@CMICallbacks@@UEAAPEAMXZ
    ?ClearAuxBuffer@CMICallbacks@@UEAAXXZ
    ?GetFreeWave@CMICallbacks@@UEAAHXZ
    ?AllocateWave@CMICallbacks@@UEAA_NHHPEBD@Z
    ?ScheduleEvent@CMICallbacks@@UEAAXHK@Z
    ?MidiOut@CMICallbacks@@UEAAXHK@Z
    ?GetOscillatorTable@CMICallbacks@@UEAAPEBFH@Z
    ?GetEnvSize@CMICallbacks@@UEAAHHH@Z
    ?GetEnvPoint@CMICallbacks@@UEAA_NHHHAEAG0AEAH@Z
    ?GetNearestWaveLevel@CMICallbacks@@UEAAPEBVCWaveLevel@@HH@Z
    ?SetNumberOfTracks@CMICallbacks@@UEAAXH@Z
    ?CreatePattern@CMICallbacks@@UEAAPEAVCPattern@@PEBDH@Z
    ?GetPattern@CMICallbacks@@UEAAPEAVCPattern@@H@Z
    ?GetPatternName@CMICallbacks@@UEAAPEBDPEAVCPattern@@@Z
    ?RenamePattern@CMICallbacks@@UEAAXPEBD0@Z
    ?DeletePattern@CMICallbacks@@UEAAXPEAVCPattern@@@Z
    ?GetPatternData@CMICallbacks@@UEAAHPEAVCPattern@@HHHH@Z
    ?SetPatternData@CMICallbacks@@UEAAXPEAVCPattern@@HHHHH@Z
    ?CreateSequence@CMICallbacks@@UEAAPEAVCSequence@@XZ 
    ?DeleteSequence@CMICallbacks@@UEAAXPEAVCSequence@@@Z 
    ?GetSequenceData@CMICallbacks@@UEAAPEAVCPattern@@H@Z 
    ?SetSequenceData@CMICallbacks@@UEAAXHPEAVCPattern@@@Z 
    ?SetMachineInterfaceEx@CMICallbacks@@UEAAXPEAVCMachineInterfaceEx@@@Z 
    ?ControlChange__obsolete__@CMICallbacks@@UEAAXHHHH@Z 
    ?ADGetnumChannels@CMICallbacks@@UEAAH_N@Z 
    ?ADWrite@CMICallbacks@@UEAAXHPEAMH@Z 
    ?ADRead@CMICallbacks@@UEAAXHPEAMH@Z 
    ?GetThisMachine@CMICallbacks@@UEAAPEAVCMachine@@XZ 
    ?ControlChange@CMICallbacks@@UEAAXPEAVCMachine@@HHHH@Z 
    ?GetPlayingSequence@CMICallbacks@@UEAAPEAVCSequence@@PEAVCMachine@@@Z 
    ?GetPlayingRow@CMICallbacks@@UEAAPEAXPEAVCSequence@@HH@Z 
    ?GetStateFlags@CMICallbacks@@UEAAHXZ 
    ?SetnumOutputChannels@CMICallbacks@@UEAAXPEAVCMachine@@H@Z 
    ?SetEventHandler@CMICallbacks@@UEAAXPEAVCMachine@@W4BEventType@@P8CMachineInterface@@EAA_NPEAX@Z2@Z 
    ?GetWaveName@CMICallbacks@@UEAAPEBDH@Z 
    ?SetInternalWaveName@CMICallbacks@@UEAAXPEAVCMachine@@HPEBD@Z 
    ?GetMachineNames@CMICallbacks@@UEAAXPEAVCMachineDataOutput@@@Z 
    ?GetMachine@CMICallbacks@@UEAAPEAVCMachine@@PEBD@Z 
    ?GetMachineInfo@CMICallbacks@@UEAAPEBVCMachineInfo@@PEAVCMachine@@@Z 
    ?GetMachineName@CMICallbacks@@UEAAPEBDPEAVCMachine@@@Z 
    ?GetInput@CMICallbacks@@UEAA_NHPEAMH_N0@Z 
    ?GetHostVersion@CMICallbacks@@UEAAHXZ 
    ?GetSongPosition@CMICallbacks@@UEAAHXZ 
    ?SetSongPosition@CMICallbacks@@UEAAXH@Z 
    ?GetTempo@CMICallbacks@@UEAAHXZ 
    ?SetTempo@CMICallbacks@@UEAAXH@Z 
    ?GetTPB@CMICallbacks@@UEAAHXZ 
    ?SetTPB@CMICallbacks@@UEAAXH@Z 
    ?GetLoopStart@CMICallbacks@@UEAAHXZ 
    ?GetLoopEnd@CMICallbacks@@UEAAHXZ 
    ?GetSongEnd@CMICallbacks@@UEAAHXZ 
    ?Play@CMICallbacks@@UEAAXXZ 
    ?Stop@CMICallbacks@@UEAAXXZ 
    ?RenameMachine@CMICallbacks@@UEAA_NPEAVCMachine@@PEBD@Z 
    ?SetModifiedFlag@CMICallbacks@@UEAAXXZ 
    ?GetAudioFrame@CMICallbacks@@UEAAHXZ 
    ?HostMIDIFiltering@CMICallbacks@@UEAA_NXZ 
    ?GetThemeColor@CMICallbacks@@UEAAKPEBD@Z 
    ?WriteProfileInt@CMICallbacks@@UEAAXPEBDH@Z 
    ?WriteProfileString@CMICallbacks@@UEAAXPEBD0@Z 
    ?WriteProfileBinary@CMICallbacks@@UEAAXPEBDPEAEH@Z 
    ?GetProfileInt@CMICallbacks@@UEAAHPEBDH@Z 
    ?GetProfileString@CMICallbacks@@UEAAXPEBD00@Z 
    ?GetProfileBinary@CMICallbacks@@UEAAXPEBDPEAPEAEPEAH@Z 
    ?FreeProfileBinary@CMICallbacks@@UEAAXPEAE@Z 
    ?GetNumTracks@CMICallbacks@@UEAAHPEAVCMachine@@@Z 
    ?SetNumTracks@CMICallbacks@@UEAAXPEAVCMachine@@H@Z 
    ?SetPatternEditorStatusText@CMICallbacks@@UEAAXHPEBD@Z 
    ?DescribeValue@CMICallbacks@@UEAAPEBDPEAVCMachine@@HH@Z 
    ?GetBaseOctave@CMICallbacks@@UEAAHXZ 
    ?GetSelectedWave@CMICallbacks@@UEAAHXZ 
    ?SelectWave@CMICallbacks@@UEAAXH@Z 
    ?SetPatternLength@CMICallbacks@@UEAAXPEAVCPattern@@H@Z 
    ?GetParameterState@CMICallbacks@@UEAAHPEAVCMachine@@HHH@Z 
    ?ShowMachineWindow@CMICallbacks@@UEAAXPEAVCMachine@@_N@Z 
    ?SetPatternEditorMachine@CMICallbacks@@UEAAXPEAVCMachine@@_N@Z 
    ?GetSubTickInfo@CMICallbacks@@UEAAPEBVCSubTickInfo@@XZ 
    ?GetSequenceColumn@CMICallbacks@@UEAAHPEAVCSequence@@@Z 
    ?SetGroovePattern@CMICallbacks@@UEAAXPEAMH@Z 
    ?ControlChangeImmediate@CMICallbacks@@UEAAXPEAVCMachine@@HHHH@Z 
    ?SendControlChanges@CMICallbacks@@UEAAXPEAVCMachine@@@Z 
    ?GetAttribute@CMICallbacks@@UEAAHPEAVCMachine@@H@Z 
    ?SetAttribute@CMICallbacks@@UEAAXPEAVCMachine@@HH@Z 
    ?AttributesChanged@CMICallbacks@@UEAAXPEAVCMachine@@@Z 
    ?GetMachinePosition@CMICallbacks@@UEAAXPEAVCMachine@@AEAM1@Z 
    ?SetMachinePosition@CMICallbacks@@UEAAXPEAVCMachine@@MM@Z 
    ?MuteMachine@CMICallbacks@@UEAAXPEAVCMachine@@_N@Z 
    ?SoloMachine@CMICallbacks@@UEAAXPEAVCMachine@@@Z 
    ?UpdateParameterDisplays@CMICallbacks@@UEAAXPEAVCMachine@@@Z 
    ?WriteLine@CMICallbacks@@UEAAXPEBD@Z 
    ?GetOption@CMICallbacks@@UEAA_NPEBD@Z 
    ?GetPlayNotesState@CMICallbacks@@UEAA_NXZ 
    ?EnableMultithreading@CMICallbacks@@UEAAX_N@Z 
    ?GetPatternByName@CMICallbacks@@UEAAPEAVCPattern@@PEAVCMachine@@PEBD@Z 
    ?SetPatternName@CMICallbacks@@UEAAXPEAVCPattern@@PEBD@Z 
    ?GetPatternLength@CMICallbacks@@UEAAHPEAVCPattern@@@Z 
    ?GetPatternOwner@CMICallbacks@@UEAAPEAVCMachine@@PEAVCPattern@@@Z 
    ?MachineImplementsFunction@CMICallbacks@@UEAA_NPEAVCMachine@@H_N@Z 
    ?SendMidiNote@CMICallbacks@@UEAAXPEAVCMachine@@HHH@Z 
    ?SendMidiControlChange@CMICallbacks@@UEAAXPEAVCMachine@@HHH@Z 
    ?GetBuildNumber@CMICallbacks@@UEAAHXZ 
    ?SetMidiFocus@CMICallbacks@@UEAAXPEAVCMachine@@@Z 
    ?BeginWriteToPlayingPattern@CMICallbacks@@UEAAXPEAVCMachine@@HAEAVCPatternWriteInfo@@@Z 
    ?WriteToPlayingPattern@CMICallbacks@@UEAAXPEAVCMachine@@HHHH@Z 
    ?EndWriteToPlayingPattern@CMICallbacks@@UEAAXPEAVCMachine@@@Z 
    ?GetMainWindow@CMICallbacks@@UEAAPEAXXZ 
    ?DebugLock@CMICallbacks@@UEAAXPEBD@Z 
    ?SetInputChannelCount@CMICallbacks@@UEAAXH@Z 
    ?SetOutputChannelCount@CMICallbacks@@UEAAXH@Z 
    ?IsSongClosing@CMICallbacks@@UEAA_NXZ 
    ?SetMidiInputMode@CMICallbacks@@UEAAXW4MidiInputMode@@@Z 
    ?RemapLoadedMachineParameterIndex@CMICallbacks@@UEAAHPEAVCMachine@@H@Z 
    ?GetThemePath@CMICallbacks@@UEAAPEBDXZ 
    ?InvalidateParameterValueDescription@CMICallbacks@@UEAAXPEAVCMachine@@H@Z 
    ?RemapLoadedMachineName@CMICallbacks@@UEAAXPEADH@Z 
    ?IsMachineMuted@CMICallbacks@@UEAA_NPEAVCMachine@@@Z 
   
    ?GetOutputChannelConnectionCount@CMICallbacks@@UEAAHPEAVCMachine@@H@Z 
    ?ToggleRecordMode@CMICallbacks@@UEAAXXZ 
    ?GetSequenceCount@CMICallbacks@@UEAAHPEAVCMachine@@@Z 
    ?GetSequence@CMICallbacks@@UEAAPEAVCSequence@@PEAVCMachine@@H@Z 
    ?GetPlayingPattern@CMICallbacks@@UEAAPEAVCPattern@@PEAVCSequence@@@Z 
    ?GetPlayingPatternPosition@CMICallbacks@@UEAAHPEAVCSequence@@@Z 
    ?IsValidAsciiChar@CMICallbacks@@UEAA_NPEAVCMachine@@HD@Z 
    ?GetConnectionCount@CMICallbacks@@UEAAHPEAVCMachine@@_N@Z 
    ?GetConnection@CMICallbacks@@UEAAPEAVCMachineConnection@@PEAVCMachine@@_NH@Z 
    ?GetConnectionSource@CMICallbacks@@UEAAPEAVCMachine@@PEAVCMachineConnection@@AEAH@Z 
    ?GetConnectionDestination@CMICallbacks@@UEAAPEAVCMachine@@PEAVCMachineConnection@@AEAH@Z 
    ?GetTotalLatency@CMICallbacks@@UEAAHXZ 
    ?GetMachineModuleHandle@CMICallbacks@@UEAAPEAXPEAVCMachine@@@Z 






